(dp1
S'collector'
p2
S'coverage v3.0.1'
p3
sS'lines'
p4
(dp5
S'/home/toffo/workspace/DIRAC/Core/Utilities/Network.py'
p6
(lp7
I2
aI9
aI10
aI11
aI12
aI13
aI15
aI34
aI46
aI53
aI76
aI87
asS'/home/toffo/workspace/DIRAC/LoggingSystem/private/backends/PrintBackend.py'
p8
(lp9
I2
aI5
aI7
aI9
asS'/home/toffo/workspace/DIRAC/Core/Utilities/Source.py'
p10
(lp11
I7
asS'/home/toffo/workspace/DIRAC/LoggingSystem/Client/Logger.py'
p12
(lp13
I2
aI3
aI5
aI6
asS'/home/toffo/workspace/DIRAC/LoggingSystem/private/__init__.py'
p14
(lp15
I2
asS'/home/toffo/workspace/DIRAC/Core/Utilities/ReturnValues.py'
p16
(lp17
I2
aI9
aI12
asS'/home/toffo/workspace/DIRAC/__init__.py'
p18
(lp19
I3
asS'/home/toffo/workspace/DIRAC/LoggingSystem/private/backends/StdErrBackend.py'
p20
(lp21
I1
aI2
aI4
aI6
asS'/home/toffo/workspace/DIRAC/Core/__init__.py'
p22
(lp23
I2
aI5
asS'/home/toffo/workspace/DIRAC/LoggingSystem/private/backends/RemoteBackend.py'
p24
(lp25
I2
aI7
aI8
aI9
aI10
aI11
aI13
aI15
aI31
aI34
aI40
aI55
aI79
aI84
asS'/home/toffo/workspace/DIRAC/ResourceStatusSystem/DB/ResourceStatusDB.py'
p26
(lp27
I2
aI4
aI6
aI7
aI16
aI17
aI21
aI23
aI32
aI52
aI68
aI74
aI95
aI111
aI116
aI121
aI138
aI155
aI169
aI187
aI236
aI268
aI287
aI327
aI401
aI424
aI446
aI470
aI485
aI533
aI552
aI572
aI585
aI597
aI609
aI622
aI630
aI642
aI652
aI673
asS'/home/toffo/workspace/DIRAC/LoggingSystem/private/backends/BaseBackend.py'
p28
(lp29
I2
aI6
aI8
aI10
aI11
aI13
aI16
aI19
asS'/home/toffo/workspace/DIRAC/ResourceStatusSystem/DB/__init__.py'
p30
(lp31
I3
asS'/home/toffo/workspace/DIRAC/Core/Utilities/File.py'
p32
(lp33
I2
aI9
aI10
aI11
aI12
aI13
aI14
aI16
aI45
aI66
aI75
aI99
aI108
aI130
asS'/home/toffo/workspace/DIRAC/LoggingSystem/private/Message.py'
p34
(lp35
I2
aI4
aI6
aI11
aI13
aI24
aI27
aI30
aI33
aI36
aI39
aI42
aI45
aI48
aI52
aI55
aI61
aI64
aI73
asS'/home/toffo/workspace/DIRAC/ResourceStatusSystem/__init__.py'
p36
(lp37
I3
asS'/home/toffo/workspace/DIRAC/Core/Utilities/Tests.py'
p38
(lp39
I2
aI7
asS'/home/toffo/workspace/DIRAC/Core/Utilities/ThreadSafe.py'
p40
(lp41
I2
aI4
aI6
aI9
aI11
aI18
aI32
aI35
aI36
aI41
aI53
aI65
aI76
aI84
aI92
asS'/home/toffo/workspace/DIRAC/LoggingSystem/private/backends/BackendIndex.py'
p42
(lp43
I2
aI3
aI4
aI5
aI7
aI8
aI9
aI10
asS'/home/toffo/workspace/DIRAC/LoggingSystem/private/backends/__init__.py'
p44
(lp45
I1
asS'/home/toffo/workspace/DIRAC/LoggingSystem/private/Logger.py'
p46
(lp47
I2
aI7
aI8
aI9
aI10
aI11
aI12
aI13
aI14
aI15
aI16
aI17
aI18
aI20
aI22
aI23
aI24
aI25
aI26
aI27
aI28
aI29
aI31
aI34
aI35
aI36
aI37
aI38
aI42
aI44
aI45
aI46
aI47
aI48
aI50
aI94
aI102
aI105
aI114
aI123
aI132
aI141
aI150
aI159
aI172
aI181
aI190
aI198
aI201
aI205
aI238
aI247
aI285
aI293
aI297
asS'/home/toffo/workspace/DIRAC/ResourceStatusSystem/test/__init__.py'
p48
(lp49
I3
asS'/home/toffo/workspace/DIRAC/LoggingSystem/private/LogLevels.py'
p50
(lp51
I2
aI4
aI6
aI7
aI8
aI9
aI10
aI11
aI12
aI13
aI14
aI15
aI16
aI17
aI18
aI19
aI20
aI21
aI22
aI23
aI24
aI27
aI28
aI29
aI33
asS'/home/toffo/workspace/DIRAC/Core/Utilities/ColorCLI.py'
p52
(lp53
I2
aI4
aI5
aI7
aI9
aI15
asS'/home/toffo/workspace/DIRAC/Core/Utilities/ThreadPool.py'
p54
(lp55
I5
aI7
aI8
aI9
aI10
aI11
aI12
aI15
aI17
aI19
aI28
aI31
aI34
aI47
aI51
aI52
aI53
aI54
aI55
aI65
aI69
aI72
aI75
aI78
aI82
aI86
aI94
aI96
aI111
aI114
aI117
aI120
aI123
aI127
aI134
aI141
aI148
aI154
aI165
aI166
aI167
aI168
aI169
aI170
aI174
aI177
aI180
aI183
aI197
aI203
aI208
aI214
asS'/home/toffo/workspace/DIRAC/Core/Utilities/DictCache.py'
p56
(lp57
I2
aI4
aI5
aI7
aI9
aI18
aI40
aI56
aI72
aI94
aI110
aI125
aI143
asS'/afs/cern.ch/user/f/fstagni/cmtuser/Dirac_v4r17/DIRAC/ResourceStatusSystem/DB/test/Test_ResourceStatusDB.py'
p58
(lp59
I3
aI4
aI5
aI6
aI8
aI10
aI11
aI13
aI16
aI17
aI20
aI23
aI27
aI33
aI39
aI45
aI51
aI55
aI61
aI67
aI71
aI75
aI81
aI85
aI89
aI93
aI97
aI103
aI107
aI111
aI115
aI119
aI125
aI141
aI145
aI149
aI155
aI160
aI167
aI171
aI175
aI179
aI185
aI190
aI193
aI200
aI201
aI202
aI203
aI204
asS'/home/toffo/workspace/DIRAC/Core/Utilities/ExitCallback.py'
p60
(lp61
I1
aI2
aI3
aI5
aI7
aI17
aI33
asS'/home/toffo/workspace/DIRAC/LoggingSystem/Client/__init__.py'
p62
(lp63
I2
aI5
asS'/home/toffo/workspace/DIRAC/ResourceStatusSystem/test/mock.py'
p64
(lp65
I21
aI24
aI27
aI28
aI29
aI31
aI35
aI36
aI37
aI39
aI40
aI43
aI45
aI47
aI48
aI49
aI51
aI52
aI54
aI60
aI62
aI63
aI64
aI65
aI66
aI69
aI70
aI71
aI72
aI73
aI75
aI79
aI80
aI81
aI82
aI83
aI84
aI85
aI87
aI91
aI96
aI97
aI99
aI102
aI128
aI129
aI132
aI135
aI136
aI137
aI139
aI141
aI144
aI148
aI156
aI167
aI168
aI176
aI202
aI211
aI229
aI237
aI241
asS'/home/toffo/workspace/DIRAC/Core/Utilities/List.py'
p66
(lp67
I2
aI8
aI9
aI10
aI12
aI25
aI32
aI44
aI57
aI67
aI76
aI87
aI98
asS'/home/toffo/workspace/DIRAC/LoggingSystem/__init__.py'
p68
(lp69
I2
aI5
asS'/home/toffo/workspace/DIRAC/Core/Utilities/Time.py'
p70
(lp71
I2
aI28
aI29
aI30
aI35
aI36
aI37
aI38
aI39
aI40
aI42
aI44
aI48
aI50
aI55
aI57
aI59
aI64
aI65
aI66
aI68
aI76
aI82
aI91
aI99
aI128
aI181
aI185
aI186
aI206
aI219
aI220
aI221
aI223
aI224
aI225
asS'/home/toffo/workspace/DIRAC/Core/Utilities/__init__.py'
p72
(lp73
I2
aI6
aI7
aI8
aI9
aI10
aI11
aI12
aI13
aI14
aI15
aI16
asS'/home/toffo/workspace/DIRAC/LoggingSystem/private/backends/FileBackend.py'
p74
(lp75
I2
aI5
aI7
aI8
aI12
asS'/home/toffo/workspace/DIRAC/Core/Utilities/DEncode.py'
p76
(lp77
I2
aI19
aI20
aI21
aI22
aI24
aI25
aI26
aI27
aI29
aI30
aI33
aI36
aI42
aI43
aI46
aI50
aI56
aI57
aI60
aI63
aI74
aI75
aI78
aI84
aI90
aI91
aI94
aI97
aI105
aI106
aI109
aI113
aI121
aI122
aI125
aI147
aI162
aI163
aI164
aI165
aI168
aI171
aI174
aI175
aI178
aI184
aI192
aI193
aI196
aI202
aI206
aI207
aI210
aI217
aI225
aI226
aI230
aI239
aI249
ass.