Certificate:
    Data:
        Version: 3 (0x2)
        Serial Number: 4097 (0x1001)
    Signature Algorithm: sha256WithRSAEncryption
        Issuer: O=DIRAC Computing, CN=DIRAC Computing Signing Certification Authority
        Validity
            Not Before: Aug 22 09:15:14 2018 GMT
            Not After : Oct 21 09:15:14 2037 GMT
        Subject: O=Dirac Computing, O=CERN, CN=MrUser
        Subject Public Key Info:
            Public Key Algorithm: rsaEncryption
                Public-Key: (4096 bit)
                Modulus:
                    00:a9:f6:67:7f:dc:0a:f9:af:aa:c7:c9:1f:46:52:
                    1a:7a:1c:c3:da:2c:7e:e9:32:99:27:ec:3d:68:19:
                    61:d7:56:f9:70:f7:e6:20:c3:a6:4c:45:de:f2:b0:
                    f9:1b:a5:8a:a1:f3:8a:34:18:90:e2:f5:f6:b4:4b:
                    fb:a6:c6:29:7a:d3:30:43:d4:79:92:ce:bb:44:df:
                    d8:18:59:33:10:43:bb:8f:36:05:b5:6b:12:da:36:
                    ec:74:75:5f:ff:6c:1e:8c:80:8f:84:00:58:3f:5b:
                    06:69:06:d1:5a:d7:29:eb:dd:1f:67:de:dc:33:57:
                    3b:02:e3:7f:7c:56:7d:9b:79:80:a2:8a:79:05:ce:
                    a9:d6:1a:96:49:7c:99:71:ef:f4:27:ef:d2:8e:da:
                    cb:79:66:3c:ca:f3:31:e3:3b:51:fb:cc:10:1b:e8:
                    57:10:08:9f:9d:3e:fb:cf:0c:5e:1f:ba:4f:93:08:
                    f7:20:5a:51:a3:38:a6:4e:66:8f:83:4c:29:c1:42:
                    57:51:df:0b:a4:f9:c5:ea:90:5e:64:f3:32:6c:9e:
                    1b:e1:37:e8:75:d0:97:48:5f:f0:4f:ba:bd:51:f4:
                    ca:a6:d7:28:2d:ac:85:08:ba:7e:98:d2:48:2a:42:
                    94:ce:6f:f5:08:13:05:92:17:a7:cd:23:fb:ba:18:
                    e1:bb:74:b0:af:a4:97:97:3d:69:11:6e:c1:f4:51:
                    72:ca:08:4b:77:b1:4c:12:e0:c8:02:ef:14:2e:a2:
                    c0:01:31:51:f7:9a:79:79:cd:c6:6c:e6:d5:e0:e5:
                    f8:1b:55:29:f5:fe:af:0e:57:be:aa:1c:24:43:cd:
                    6e:5b:17:9b:b1:a5:56:bd:e5:28:df:c1:ec:97:7e:
                    dd:ab:10:7d:23:13:4e:0b:f9:d3:42:ee:7c:97:72:
                    a7:2e:87:4c:3b:07:82:98:39:f3:1c:5a:c2:e5:5f:
                    7a:a5:8a:ca:39:a1:63:d8:88:e0:e9:33:b9:99:a4:
                    07:a3:48:5f:c2:20:02:14:d2:2f:60:36:fc:03:13:
                    66:0f:33:95:00:06:64:77:f6:34:9d:b6:1e:68:ee:
                    bf:78:d2:73:46:2c:09:18:a6:4c:9d:70:b7:52:9c:
                    d1:98:80:5e:9c:34:d5:30:28:c4:3b:56:63:b1:77:
                    b4:87:08:d2:d3:fb:11:ca:d6:47:37:58:d6:ce:d9:
                    cc:b9:87:ed:bb:70:4b:51:02:50:2f:47:26:91:6b:
                    cf:1a:35:ca:05:df:64:1e:1b:98:8e:d6:6e:f9:21:
                    32:2e:78:be:e9:55:c9:24:2c:91:ef:fd:a4:9a:59:
                    2a:f5:48:a6:07:e4:4b:03:e1:1e:99:6e:c8:93:4a:
                    03:23:8f
                Exponent: 65537 (0x10001)
        X509v3 extensions:
            X509v3 Basic Constraints: 
                CA:FALSE
            X509v3 Subject Key Identifier: 
                4A:C2:FD:EB:2C:C5:F1:63:A5:F2:17:62:43:6B:9D:82:6C:9A:13:24
            X509v3 Authority Key Identifier: 
                keyid:04:C2:17:AF:38:64:E0:86:BF:1F:C9:00:6E:97:6F:1B:BB:4E:87:1F

            X509v3 Key Usage: critical
                Digital Signature, Non Repudiation, Key Encipherment
            X509v3 Extended Key Usage: 
                TLS Web Client Authentication
            Netscape Comment: 
                OpenSSL Generated Client Certificate
    Signature Algorithm: sha256WithRSAEncryption
         39:ed:ae:11:4d:7b:51:63:94:88:3b:19:58:b0:d5:60:2f:36:
         d2:c5:dc:0b:5f:62:8d:ca:3d:cc:d0:d5:7c:29:0a:cc:f3:0a:
         28:f9:44:03:9e:9d:63:f2:ad:d1:c5:80:b6:29:25:3c:e8:96:
         12:d2:b2:6e:c3:3b:6b:26:76:14:48:8f:74:14:9d:f4:ff:2a:
         1d:81:4c:95:bb:17:73:28:9b:e5:05:e9:74:77:9b:72:2a:6e:
         f4:e4:73:a7:e8:65:16:f4:c0:d5:f1:44:ac:39:fe:9c:f5:be:
         c5:30:a9:d7:db:5d:96:b3:72:c3:10:d6:5d:b0:78:28:96:7f:
         57:14:95:b9:3e:25:31:96:27:eb:05:0e:30:53:7f:c6:3e:35:
         7a:f1:aa:a9:07:c9:9b:ec:93:7d:e5:b7:9f:60:a5:0c:20:db:
         93:76:eb:ff:72:98:f1:e0:8f:2d:49:65:65:f7:49:82:73:76:
         e1:25:ab:4b:84:b4:b4:1b:8e:66:df:a1:4e:de:cb:21:23:d2:
         3c:88:b1:c5:73:6c:c4:b0:97:ab:b2:ac:12:52:25:cc:f3:db:
         32:c7:6a:0c:9f:e5:84:35:28:1c:f6:59:bb:d7:21:8b:8b:7c:
         17:92:46:93:37:27:d4:c3:92:9a:7e:5d:ef:89:31:49:80:f5:
         41:38:2f:5f:be:ed:d0:0d:44:ec:6e:79:35:88:99:25:34:a3:
         a1:a2:10:89:0c:01:34:46:a4:ec:ec:fd:40:28:7e:e6:a1:f0:
         47:f3:69:e2:fa:38:f9:de:29:ca:e5:b1:a7:31:c7:06:e4:2b:
         57:a7:43:67:49:8e:34:15:b1:ea:0c:69:90:53:78:da:6b:7c:
         11:47:76:e9:f6:86:ee:47:9b:6d:e5:68:52:dd:55:05:37:29:
         f4:71:c7:0c:a4:2a:f6:5a:28:76:01:a8:91:aa:f2:70:57:89:
         f2:5f:99:30:cf:77:62:83:cf:56:5b:22:8c:6e:89:9a:7f:94:
         ad:93:73:c1:b8:b9:25:c1:3b:df:5a:84:ba:b1:98:53:89:23:
         a7:3a:62:ad:ab:b0:0a:73:a0:4a:6e:c3:c1:ac:0d:a2:29:4b:
         14:e4:92:87:7f:e2:66:00:e3:33:28:6c:a4:62:76:17:05:c1:
         94:99:bb:c0:15:b2:4b:ed:2a:4e:7b:1e:92:a4:da:9a:e4:c3:
         4c:03:c9:46:16:f6:2c:f5:45:97:42:fc:f9:fa:e4:d6:09:29:
         c3:82:93:0b:31:b0:e2:b2:96:fb:e1:14:8d:2d:62:d3:db:2a:
         d8:3b:fa:fd:f5:bf:c9:ba:b1:a5:13:aa:9b:22:c7:6e:a1:04:
         c6:3d:3f:84:fc:4f:28:fc
-----BEGIN CERTIFICATE-----
MIIFszCCA5ugAwIBAgICEAEwDQYJKoZIhvcNAQELBQAwVDEYMBYGA1UECgwPRElS
QUMgQ29tcHV0aW5nMTgwNgYDVQQDDC9ESVJBQyBDb21wdXRpbmcgU2lnbmluZyBD
ZXJ0aWZpY2F0aW9uIEF1dGhvcml0eTAeFw0xODA4MjIwOTE1MTRaFw0zNzEwMjEw
OTE1MTRaMDoxGDAWBgNVBAoMD0RpcmFjIENvbXB1dGluZzENMAsGA1UECgwEQ0VS
TjEPMA0GA1UEAwwGTXJVc2VyMIICIjANBgkqhkiG9w0BAQEFAAOCAg8AMIICCgKC
AgEAqfZnf9wK+a+qx8kfRlIaehzD2ix+6TKZJ+w9aBlh11b5cPfmIMOmTEXe8rD5
G6WKofOKNBiQ4vX2tEv7psYpetMwQ9R5ks67RN/YGFkzEEO7jzYFtWsS2jbsdHVf
/2wejICPhABYP1sGaQbRWtcp690fZ97cM1c7AuN/fFZ9m3mAoop5Bc6p1hqWSXyZ
ce/0J+/SjtrLeWY8yvMx4ztR+8wQG+hXEAifnT77zwxeH7pPkwj3IFpRozimTmaP
g0wpwUJXUd8LpPnF6pBeZPMybJ4b4TfoddCXSF/wT7q9UfTKptcoLayFCLp+mNJI
KkKUzm/1CBMFkhenzSP7uhjhu3Swr6SXlz1pEW7B9FFyyghLd7FMEuDIAu8ULqLA
ATFR95p5ec3GbObV4OX4G1Up9f6vDle+qhwkQ81uWxebsaVWveUo38Hsl37dqxB9
IxNOC/nTQu58l3KnLodMOweCmDnzHFrC5V96pYrKOaFj2Ijg6TO5maQHo0hfwiAC
FNIvYDb8AxNmDzOVAAZkd/Y0nbYeaO6/eNJzRiwJGKZMnXC3UpzRmIBenDTVMCjE
O1ZjsXe0hwjS0/sRytZHN1jWztnMuYftu3BLUQJQL0cmkWvPGjXKBd9kHhuYjtZu
+SEyLni+6VXJJCyR7/2kmlkq9UimB+RLA+EemW7Ik0oDI48CAwEAAaOBqDCBpTAJ
BgNVHRMEAjAAMB0GA1UdDgQWBBRKwv3rLMXxY6XyF2JDa52CbJoTJDAfBgNVHSME
GDAWgBQEwhevOGTghr8fyQBul28bu06HHzAOBgNVHQ8BAf8EBAMCBeAwEwYDVR0l
BAwwCgYIKwYBBQUHAwIwMwYJYIZIAYb4QgENBCYWJE9wZW5TU0wgR2VuZXJhdGVk
IENsaWVudCBDZXJ0aWZpY2F0ZTANBgkqhkiG9w0BAQsFAAOCAgEAOe2uEU17UWOU
iDsZWLDVYC820sXcC19ijco9zNDVfCkKzPMKKPlEA56dY/Kt0cWAtiklPOiWEtKy
bsM7ayZ2FEiPdBSd9P8qHYFMlbsXcyib5QXpdHebcipu9ORzp+hlFvTA1fFErDn+
nPW+xTCp19tdlrNywxDWXbB4KJZ/VxSVuT4lMZYn6wUOMFN/xj41evGqqQfJm+yT
feW3n2ClDCDbk3br/3KY8eCPLUllZfdJgnN24SWrS4S0tBuOZt+hTt7LISPSPIix
xXNsxLCXq7KsElIlzPPbMsdqDJ/lhDUoHPZZu9chi4t8F5JGkzcn1MOSmn5d74kx
SYD1QTgvX77t0A1E7G55NYiZJTSjoaIQiQwBNEak7Oz9QCh+5qHwR/Np4vo4+d4p
yuWxpzHHBuQrV6dDZ0mONBWx6gxpkFN42mt8EUd26faG7kebbeVoUt1VBTcp9HHH
DKQq9loodgGokarycFeJ8l+ZMM93YoPPVlsijG6Jmn+UrZNzwbi5JcE731qEurGY
U4kjpzpirauwCnOgSm7DwawNoilLFOSSh3/iZgDjMyhspGJ2FwXBlJm7wBWyS+0q
TnsekqTamuTDTAPJRhb2LPVFl0L8+frk1gkpw4KTCzGw4rKW++EUjS1i09sq2Dv6
/fW/ybqxpROqmyLHbqEExj0/hPxPKPw=
-----END CERTIFICATE-----
