(dp1
S'collector'
p2
S'coverage v3.0.1'
p3
sS'lines'
p4
(dp5
S'/usr/local/lib/python2.6/dist-packages/nose/loader.py'
p6
(lp7
I75
aI77
aI78
aI79
aI80
aI81
aI82
aI85
aI86
aI87
aI88
aI89
aI90
aI91
aI92
aI331
aI333
aI336
aI337
aI340
aI341
aI365
aI366
aI367
aI370
aI371
aI377
aI378
aI379
aI381
aI382
aI383
aI384
aI434
aI435
aI436
aI437
aI442
asS'/afs/cern.ch/user/f/fstagni/cmtuser/Dirac_v4r17/DIRAC/__init__.py'
p8
(lp9
I29
aI30
aI31
aI32
aI34
aI38
aI39
aI40
aI42
aI43
aI46
aI47
aI49
aI50
aI51
aI52
aI53
aI54
aI55
aI57
asS'/usr/local/lib/python2.6/dist-packages/nose/selector.py'
p10
(lp11
I35
aI37
aI40
aI41
aI42
aI43
aI44
aI45
aI222
aI224
aI225
aI226
aI227
aI228
aI229
aI232
aI233
aI234
aI235
aI236
aI237
aI238
aI239
aI240
aI241
asS'/usr/local/lib/python2.6/dist-packages/nose/core.py'
p12
(lp13
I172
aI173
aI178
asS'/usr/local/lib/python2.6/dist-packages/nose/importer.py'
p14
(lp15
I22
aI24
aI32
aI33
aI34
aI36
aI37
aI39
aI45
aI46
aI51
aI54
aI55
aI57
aI58
aI59
aI60
aI62
aI63
aI64
aI67
aI68
aI69
aI70
aI71
aI72
aI73
aI86
aI88
aI90
aI130
aI131
aI133
aI134
aI135
aI136
aI137
aI138
aI139
aI140
aI141
aI142
aI143
aI144
aI145
aI148
asS'/usr/local/lib/python2.6/dist-packages/nose/proxy.py'
p16
(lp17
I43
aI45
aI46
aI47
asS'/usr/local/lib/python2.6/dist-packages/nose/suite.py'
p18
(lp19
I366
aI368
aI369
aI373
aI374
aI375
aI376
aI377
aI378
aI379
asS'/usr/local/lib/python2.6/dist-packages/nose/util.py'
p20
(lp21
I144
aI206
aI209
aI210
aI211
aI212
aI213
aI214
aI217
aI285
aI286
aI288
aI289
aI292
aI293
aI294
aI295
aI296
aI298
aI299
aI300
aI301
aI359
aI360
aI361
aI362
aI364
aI365
aI495
aI497
aI499
aI500
aI502
aI535
aI537
aI539
aI541
aI542
aI544
aI545
asS'/usr/local/lib/python2.6/dist-packages/nose/plugins/manager.py'
p22
(lp23
I71
aI72
aI76
aI77
aI78
aI79
aI82
aI88
aI89
aI97
aI101
aI103
aI104
aI106
aI107
aI111
aI132
aI149
aI160
aI161
aI167
aI229
aI230
aI231
aI232
aI233
aI234
ass.