Certificate:
    Data:
        Version: 3 (0x2)
        Serial Number: 4098 (0x1002)
    Signature Algorithm: sha256WithRSAEncryption
        Issuer: O=DIRAC Computing, CN=DIRAC Computing Signing Certification Authority
        Validity
            Not Before: Aug 22 09:18:17 2018 GMT
            Not After : Oct 21 09:18:17 2037 GMT
        Subject: O=Dirac Computing, O=CERN, CN=VOBox
        Subject Public Key Info:
            Public Key Algorithm: rsaEncryption
                Public-Key: (4096 bit)
                Modulus:
                    00:e3:57:96:3a:01:02:3a:d6:76:47:cb:a8:63:af:
                    53:33:88:51:5e:87:fc:f5:0d:d0:20:90:f7:e2:52:
                    71:d0:2f:15:ad:bd:71:9c:73:8b:17:fe:d0:5c:0f:
                    ab:6f:34:a4:f3:24:2c:32:15:50:0c:2f:45:8d:4c:
                    3f:f0:e3:cd:13:52:61:88:2e:54:6d:83:ed:7b:a9:
                    f4:96:7d:e0:af:0f:28:12:6c:63:48:35:7f:a5:6b:
                    46:ae:12:a6:3b:bb:9a:17:b7:08:45:00:49:ea:05:
                    ef:ba:a7:3b:e0:7d:3a:73:87:c7:8e:b4:14:ab:aa:
                    02:54:c0:cb:5a:23:cd:4f:e8:b4:27:e6:ea:c8:41:
                    b2:7b:86:0f:47:2a:1f:5d:01:7f:a6:47:f9:b0:c4:
                    34:cf:a7:34:cf:e9:84:f9:a2:2a:97:13:98:51:68:
                    f0:0e:ea:26:de:18:67:6e:ca:98:45:88:0c:15:cc:
                    05:76:07:95:1f:07:8b:4b:f0:2f:d2:7b:23:d7:ef:
                    ee:f4:5b:ea:5a:1c:3e:df:7c:96:87:2c:a1:50:8d:
                    d0:3d:ab:b1:07:44:66:e6:d3:af:3e:68:f4:66:34:
                    22:ad:97:5a:6d:81:b6:2a:b9:59:a9:d0:38:8e:e6:
                    a3:92:ab:e2:d4:da:ff:16:e7:fc:bc:5b:be:43:6a:
                    3c:aa:19:b2:6e:31:da:38:cc:c8:c2:bc:e6:9f:3a:
                    f1:c7:69:b3:9f:62:b3:87:70:8e:8c:34:9c:76:67:
                    ab:ff:1b:40:bb:98:c5:70:70:13:dc:b8:b9:2a:b6:
                    26:b6:b8:f9:f3:c0:37:30:c5:52:f7:c0:af:ee:26:
                    21:c7:c3:74:fa:a1:d9:8e:13:fe:8a:c5:83:3e:48:
                    97:fd:c1:e0:5f:44:55:bf:7c:27:e4:59:87:c4:03:
                    51:49:86:77:1f:0d:93:f3:c2:22:67:40:94:eb:46:
                    5b:37:eb:ba:f0:9c:d2:c7:d1:59:2f:c4:32:ce:1d:
                    8e:cb:86:5f:a3:d6:fc:1d:76:78:ce:35:8a:ca:54:
                    cb:6d:7f:52:1f:14:de:50:74:c5:f6:ad:1a:e4:2d:
                    7d:a3:65:75:da:27:82:01:79:50:56:58:f5:66:5a:
                    3f:1e:f3:dd:9d:87:61:69:cd:95:7c:f1:71:3b:db:
                    2d:7b:61:1c:7e:b9:7e:f1:ff:be:a9:dc:9f:47:de:
                    f1:08:d0:b8:ff:e7:7a:b7:97:11:ff:5b:75:51:1a:
                    76:da:73:bb:53:ee:4b:d5:a2:a7:94:69:77:38:01:
                    08:88:17:6b:65:47:67:6d:8c:76:ce:00:0d:d2:97:
                    b2:82:c4:90:6f:69:df:32:ab:b6:12:9b:62:39:f2:
                    c4:0d:d7
                Exponent: 65537 (0x10001)
        X509v3 extensions:
            X509v3 Basic Constraints:
                CA:FALSE
            Netscape Comment:
                OpenSSL Generated Server Certificate
            X509v3 Subject Key Identifier:
                CB:42:51:C8:96:0A:29:92:78:B0:03:BC:B1:0A:9B:90:EB:C8:18:81
            X509v3 Authority Key Identifier:
                keyid:04:C2:17:AF:38:64:E0:86:BF:1F:C9:00:6E:97:6F:1B:BB:4E:87:1F
                DirName:/O=DIRAC Computing/CN=DIRAC Computing Signing Certification Authority
                serial:AC:BC:D0:B9:2B:47:C5:D8

            X509v3 Key Usage: critical
                Digital Signature, Key Encipherment
            X509v3 Extended Key Usage:
                TLS Web Server Authentication, TLS Web Client Authentication
            X509v3 Subject Alternative Name:
                DNS:VOBox, DNS:localhost
    Signature Algorithm: sha256WithRSAEncryption
         1d:fc:23:38:6c:79:28:d4:2c:cf:34:65:d8:86:e8:69:58:68:
         e8:81:18:84:60:94:12:49:a8:37:ac:96:18:5e:8b:db:a9:82:
         7d:f9:cb:3e:b8:46:a3:28:33:86:c5:59:26:9e:d2:01:42:30:
         63:40:75:5e:43:21:75:19:89:37:d9:21:12:aa:37:7e:73:38:
         46:6f:6c:05:3f:b7:91:e2:ef:4b:5e:77:70:cf:38:05:cc:e1:
         76:a0:86:71:46:83:6e:99:4c:1f:3a:67:a0:e9:87:7d:d0:24:
         ba:8d:92:a5:3c:a1:a3:9f:97:51:13:e1:30:e8:8a:6a:68:95:
         02:34:33:cd:9d:6a:d3:e5:84:37:b6:12:4b:cf:8c:96:9c:94:
         d5:ca:19:9d:24:5f:98:2a:b9:92:8a:a5:36:1e:f9:c8:ff:e0:
         4e:c0:1b:d9:80:41:30:7d:33:a5:d7:a7:1e:62:fc:4f:8d:2e:
         41:8b:8c:29:b4:e5:06:5d:6e:58:4b:98:9e:0c:8e:3d:a2:08:
         63:0e:2f:fc:f6:fd:b8:67:70:96:15:c9:c7:80:00:51:bf:7d:
         36:f6:62:4e:ae:5e:8f:f2:0d:a9:2a:dd:27:f2:ac:ea:52:cb:
         9f:db:73:2e:58:55:c6:86:3a:56:a1:ef:8a:69:07:6e:a5:6c:
         ef:dc:25:60:0e:71:39:ba:ce:ba:0b:cd:0b:5e:a2:b2:43:89:
         ff:7a:12:c4:89:8f:97:f1:18:a0:e7:49:17:20:f8:af:b6:b0:
         0d:dc:f8:6f:f7:f7:91:47:9f:5a:8a:45:19:5c:36:6f:f2:21:
         6c:92:ae:45:23:b5:b4:a4:64:70:a1:49:4e:6f:7e:3c:25:22:
         ae:5a:71:5f:d7:b6:45:c9:a5:8e:cb:e2:c7:10:d0:07:85:0c:
         a7:48:85:b5:f1:f1:a8:d5:c0:1a:d4:fc:6c:f2:32:6c:3b:fa:
         9d:0f:56:fc:cd:15:94:a7:d3:4e:83:eb:32:3a:0d:1c:14:70:
         fa:7f:35:13:62:d6:8c:6b:9f:3b:f5:5d:56:7f:32:d8:96:14:
         d6:60:cf:e9:a7:aa:96:a4:39:40:2c:08:6b:7d:62:21:25:54:
         56:a7:99:2e:e2:32:4a:a1:a1:bb:79:e1:49:45:5e:17:dd:f8:
         54:32:44:8d:a4:4a:b5:bc:90:bf:1e:22:cd:f7:75:98:09:65:
         34:ff:29:2b:06:f1:ef:3c:dc:84:81:6f:9c:c3:78:de:3b:a7:
         18:d4:e6:91:7f:ba:19:36:fd:e0:58:d4:4c:04:7a:fa:58:75:
         03:e8:91:8d:11:1e:26:b5:c6:4a:41:28:e3:d1:63:40:6b:48:
         60:9d:11:44:f9:fa:27:2d
-----BEGIN CERTIFICATE-----
MIIGQTCCBCmgAwIBAgICEAIwDQYJKoZIhvcNAQELBQAwVDEYMBYGA1UECgwPRElS
QUMgQ29tcHV0aW5nMTgwNgYDVQQDDC9ESVJBQyBDb21wdXRpbmcgU2lnbmluZyBD
ZXJ0aWZpY2F0aW9uIEF1dGhvcml0eTAeFw0xODA4MjIwOTE4MTdaFw0zNzEwMjEw
OTE4MTdaMDkxGDAWBgNVBAoMD0RpcmFjIENvbXB1dGluZzENMAsGA1UECgwEQ0VS
TjEOMAwGA1UEAwwFVk9Cb3gwggIiMA0GCSqGSIb3DQEBAQUAA4ICDwAwggIKAoIC
AQDjV5Y6AQI61nZHy6hjr1MziFFeh/z1DdAgkPfiUnHQLxWtvXGcc4sX/tBcD6tv
NKTzJCwyFVAML0WNTD/w480TUmGILlRtg+17qfSWfeCvDygSbGNINX+la0auEqY7
u5oXtwhFAEnqBe+6pzvgfTpzh8eOtBSrqgJUwMtaI81P6LQn5urIQbJ7hg9HKh9d
AX+mR/mwxDTPpzTP6YT5oiqXE5hRaPAO6ibeGGduyphFiAwVzAV2B5UfB4tL8C/S
eyPX7+70W+paHD7ffJaHLKFQjdA9q7EHRGbm068+aPRmNCKtl1ptgbYquVmp0DiO
5qOSq+LU2v8W5/y8W75DajyqGbJuMdo4zMjCvOafOvHHabOfYrOHcI6MNJx2Z6v/
G0C7mMVwcBPcuLkqtia2uPnzwDcwxVL3wK/uJiHHw3T6odmOE/6KxYM+SJf9weBf
RFW/fCfkWYfEA1FJhncfDZPzwiJnQJTrRls367rwnNLH0VkvxDLOHY7Lhl+j1vwd
dnjONYrKVMttf1IfFN5QdMX2rRrkLX2jZXXaJ4IBeVBWWPVmWj8e892dh2FpzZV8
8XE72y17YRx+uX7x/76p3J9H3vEI0Lj/53q3lxH/W3VRGnbac7tT7kvVoqeUaXc4
AQiIF2tlR2dtjHbOAA3Sl7KCxJBvad8yq7YSm2I58sQN1wIDAQABo4IBNjCCATIw
CQYDVR0TBAIwADAzBglghkgBhvhCAQ0EJhYkT3BlblNTTCBHZW5lcmF0ZWQgU2Vy
dmVyIENlcnRpZmljYXRlMB0GA1UdDgQWBBTLQlHIlgopkniwA7yxCpuQ68gYgTCB
hAYDVR0jBH0we4AUBMIXrzhk4Ia/H8kAbpdvG7tOhx+hWKRWMFQxGDAWBgNVBAoM
D0RJUkFDIENvbXB1dGluZzE4MDYGA1UEAwwvRElSQUMgQ29tcHV0aW5nIFNpZ25p
bmcgQ2VydGlmaWNhdGlvbiBBdXRob3JpdHmCCQCsvNC5K0fF2DAOBgNVHQ8BAf8E
BAMCBaAwHQYDVR0lBBYwFAYIKwYBBQUHAwEGCCsGAQUFBwMCMBsGA1UdEQQUMBKC
BVZPQm94gglsb2NhbGhvc3QwDQYJKoZIhvcNAQELBQADggIBAB38IzhseSjULM80
ZdiG6GlYaOiBGIRglBJJqDeslhhei9upgn35yz64RqMoM4bFWSae0gFCMGNAdV5D
IXUZiTfZIRKqN35zOEZvbAU/t5Hi70ted3DPOAXM4XaghnFGg26ZTB86Z6Dph33Q
JLqNkqU8oaOfl1ET4TDoimpolQI0M82datPlhDe2EkvPjJaclNXKGZ0kX5gquZKK
pTYe+cj/4E7AG9mAQTB9M6XXpx5i/E+NLkGLjCm05QZdblhLmJ4Mjj2iCGMOL/z2
/bhncJYVyceAAFG/fTb2Yk6uXo/yDakq3SfyrOpSy5/bcy5YVcaGOlah74ppB26l
bO/cJWAOcTm6zroLzQteorJDif96EsSJj5fxGKDnSRcg+K+2sA3c+G/395FHn1qK
RRlcNm/yIWySrkUjtbSkZHChSU5vfjwlIq5acV/XtkXJpY7L4scQ0AeFDKdIhbXx
8ajVwBrU/GzyMmw7+p0PVvzNFZSn006D6zI6DRwUcPp/NRNi1oxrnzv1XVZ/MtiW
FNZgz+mnqpakOUAsCGt9YiElVFanmS7iMkqhobt54UlFXhfd+FQyRI2kSrW8kL8e
Is33dZgJZTT/KSsG8e883ISBb5zDeN47pxjU5pF/uhk2/eBY1EwEevpYdQPokY0R
Hia1xkpBKOPRY0BrSGCdEUT5+ict
-----END CERTIFICATE-----
