Certificate:
    Data:
        Version: 3 (0x2)
        Serial Number: 4096 (0x1000)
    Signature Algorithm: sha256WithRSAEncryption
        Issuer: O=DIRAC Computing, CN=DIRAC Computing Signing Certification Authority
        Validity
            Not Before: Aug 22 09:14:03 2018 GMT
            Not After : Sep  1 09:14:03 2019 GMT
        Subject: O=Dirac Computing, O=CERN, CN=MrUser
        Subject Public Key Info:
            Public Key Algorithm: rsaEncryption
                Public-Key: (4096 bit)
                Modulus:
                    00:a9:f6:67:7f:dc:0a:f9:af:aa:c7:c9:1f:46:52:
                    1a:7a:1c:c3:da:2c:7e:e9:32:99:27:ec:3d:68:19:
                    61:d7:56:f9:70:f7:e6:20:c3:a6:4c:45:de:f2:b0:
                    f9:1b:a5:8a:a1:f3:8a:34:18:90:e2:f5:f6:b4:4b:
                    fb:a6:c6:29:7a:d3:30:43:d4:79:92:ce:bb:44:df:
                    d8:18:59:33:10:43:bb:8f:36:05:b5:6b:12:da:36:
                    ec:74:75:5f:ff:6c:1e:8c:80:8f:84:00:58:3f:5b:
                    06:69:06:d1:5a:d7:29:eb:dd:1f:67:de:dc:33:57:
                    3b:02:e3:7f:7c:56:7d:9b:79:80:a2:8a:79:05:ce:
                    a9:d6:1a:96:49:7c:99:71:ef:f4:27:ef:d2:8e:da:
                    cb:79:66:3c:ca:f3:31:e3:3b:51:fb:cc:10:1b:e8:
                    57:10:08:9f:9d:3e:fb:cf:0c:5e:1f:ba:4f:93:08:
                    f7:20:5a:51:a3:38:a6:4e:66:8f:83:4c:29:c1:42:
                    57:51:df:0b:a4:f9:c5:ea:90:5e:64:f3:32:6c:9e:
                    1b:e1:37:e8:75:d0:97:48:5f:f0:4f:ba:bd:51:f4:
                    ca:a6:d7:28:2d:ac:85:08:ba:7e:98:d2:48:2a:42:
                    94:ce:6f:f5:08:13:05:92:17:a7:cd:23:fb:ba:18:
                    e1:bb:74:b0:af:a4:97:97:3d:69:11:6e:c1:f4:51:
                    72:ca:08:4b:77:b1:4c:12:e0:c8:02:ef:14:2e:a2:
                    c0:01:31:51:f7:9a:79:79:cd:c6:6c:e6:d5:e0:e5:
                    f8:1b:55:29:f5:fe:af:0e:57:be:aa:1c:24:43:cd:
                    6e:5b:17:9b:b1:a5:56:bd:e5:28:df:c1:ec:97:7e:
                    dd:ab:10:7d:23:13:4e:0b:f9:d3:42:ee:7c:97:72:
                    a7:2e:87:4c:3b:07:82:98:39:f3:1c:5a:c2:e5:5f:
                    7a:a5:8a:ca:39:a1:63:d8:88:e0:e9:33:b9:99:a4:
                    07:a3:48:5f:c2:20:02:14:d2:2f:60:36:fc:03:13:
                    66:0f:33:95:00:06:64:77:f6:34:9d:b6:1e:68:ee:
                    bf:78:d2:73:46:2c:09:18:a6:4c:9d:70:b7:52:9c:
                    d1:98:80:5e:9c:34:d5:30:28:c4:3b:56:63:b1:77:
                    b4:87:08:d2:d3:fb:11:ca:d6:47:37:58:d6:ce:d9:
                    cc:b9:87:ed:bb:70:4b:51:02:50:2f:47:26:91:6b:
                    cf:1a:35:ca:05:df:64:1e:1b:98:8e:d6:6e:f9:21:
                    32:2e:78:be:e9:55:c9:24:2c:91:ef:fd:a4:9a:59:
                    2a:f5:48:a6:07:e4:4b:03:e1:1e:99:6e:c8:93:4a:
                    03:23:8f
                Exponent: 65537 (0x10001)
        X509v3 extensions:
            X509v3 Basic Constraints: 
                CA:FALSE
            X509v3 Subject Key Identifier: 
                4A:C2:FD:EB:2C:C5:F1:63:A5:F2:17:62:43:6B:9D:82:6C:9A:13:24
            X509v3 Authority Key Identifier: 
                keyid:04:C2:17:AF:38:64:E0:86:BF:1F:C9:00:6E:97:6F:1B:BB:4E:87:1F

            X509v3 Key Usage: critical
                Digital Signature, Non Repudiation, Key Encipherment
            X509v3 Extended Key Usage: 
                TLS Web Client Authentication
            Netscape Comment: 
                OpenSSL Generated Client Certificate
    Signature Algorithm: sha256WithRSAEncryption
         69:94:90:e8:07:e6:11:fd:a8:ce:df:0e:88:b0:e9:02:12:ff:
         d5:b2:f7:31:21:6a:fb:69:b6:d1:d7:11:51:c2:6d:c7:c8:f0:
         95:e6:55:73:65:6c:c1:45:c6:f6:72:37:55:6b:09:ed:a7:2b:
         ce:87:a8:54:96:0c:b8:39:a4:7f:df:e8:23:0f:78:7b:93:3f:
         6e:50:ae:bf:0b:72:16:86:b8:8b:20:e0:14:92:17:83:e3:6f:
         ab:62:1b:9b:e2:8c:1d:36:4b:50:14:78:dd:bf:9b:d5:fb:7a:
         b7:3f:73:ce:a8:21:9e:1a:5b:f7:20:41:08:37:7f:ce:36:ed:
         83:43:75:c8:e4:91:a2:38:0e:1e:50:51:72:d3:21:31:1a:13:
         f5:48:fc:e3:46:47:91:ea:5c:d0:77:6c:73:95:ed:7e:9b:68:
         e5:30:45:9b:c9:b0:4d:25:3f:46:54:a5:2f:c3:24:d9:e7:88:
         48:b2:b4:af:ac:1a:18:3f:c0:03:5c:50:f8:67:a6:bf:72:0c:
         53:1c:2c:9f:da:42:49:b8:7d:76:44:7a:7b:a8:a6:72:67:0d:
         b4:c7:ee:1e:82:c0:3b:67:30:91:64:28:3c:b7:5b:e9:f7:24:
         4f:d8:e5:0a:a8:b7:cd:e3:69:e9:78:82:53:fd:f7:ec:65:a5:
         54:9a:91:33:92:be:1a:4f:c9:34:10:5c:4e:97:57:0d:d7:d8:
         4a:81:82:bc:eb:9e:d2:a1:9d:65:c5:6e:cc:50:b3:eb:82:5a:
         fd:f3:a6:af:9d:d4:b2:a8:54:5a:91:75:01:38:f5:46:5a:a6:
         bf:11:24:f6:03:29:f3:36:2f:05:56:e7:2a:e7:b1:f6:c2:24:
         4e:ce:85:ad:95:d8:19:25:63:ba:b9:09:66:c9:9f:3b:02:34:
         d6:d5:c8:b4:df:32:a0:85:74:0c:4a:28:31:b0:9b:ce:49:dc:
         b9:d1:3f:fa:58:4b:2e:ca:a0:9c:3e:f6:36:e5:f9:f6:6d:31:
         8c:cc:48:78:20:ea:78:33:a9:83:7b:4e:f7:68:b4:92:4e:9a:
         78:81:c6:24:91:62:4a:e9:af:ff:30:3e:22:42:7c:05:49:d9:
         49:15:6f:46:30:51:61:05:8f:19:7c:6e:65:6a:78:db:56:a2:
         47:a6:2a:11:0c:ef:27:0c:7e:2b:ce:ff:0c:eb:9d:49:47:e9:
         97:f6:b5:c8:c9:d7:9c:9c:6e:8a:f4:62:ee:0e:53:75:bf:ca:
         3e:b3:2a:bc:1d:a7:64:f3:3a:bf:a2:6c:77:5e:28:68:7a:aa:
         fd:b3:1d:37:79:b8:d6:17:02:d3:87:0e:25:7d:70:9b:9e:31:
         45:42:dc:a6:2b:a3:09:7c
-----BEGIN CERTIFICATE-----
MIIFszCCA5ugAwIBAgICEAAwDQYJKoZIhvcNAQELBQAwVDEYMBYGA1UECgwPRElS
QUMgQ29tcHV0aW5nMTgwNgYDVQQDDC9ESVJBQyBDb21wdXRpbmcgU2lnbmluZyBD
ZXJ0aWZpY2F0aW9uIEF1dGhvcml0eTAeFw0xODA4MjIwOTE0MDNaFw0xOTA5MDEw
OTE0MDNaMDoxGDAWBgNVBAoMD0RpcmFjIENvbXB1dGluZzENMAsGA1UECgwEQ0VS
TjEPMA0GA1UEAwwGTXJVc2VyMIICIjANBgkqhkiG9w0BAQEFAAOCAg8AMIICCgKC
AgEAqfZnf9wK+a+qx8kfRlIaehzD2ix+6TKZJ+w9aBlh11b5cPfmIMOmTEXe8rD5
G6WKofOKNBiQ4vX2tEv7psYpetMwQ9R5ks67RN/YGFkzEEO7jzYFtWsS2jbsdHVf
/2wejICPhABYP1sGaQbRWtcp690fZ97cM1c7AuN/fFZ9m3mAoop5Bc6p1hqWSXyZ
ce/0J+/SjtrLeWY8yvMx4ztR+8wQG+hXEAifnT77zwxeH7pPkwj3IFpRozimTmaP
g0wpwUJXUd8LpPnF6pBeZPMybJ4b4TfoddCXSF/wT7q9UfTKptcoLayFCLp+mNJI
KkKUzm/1CBMFkhenzSP7uhjhu3Swr6SXlz1pEW7B9FFyyghLd7FMEuDIAu8ULqLA
ATFR95p5ec3GbObV4OX4G1Up9f6vDle+qhwkQ81uWxebsaVWveUo38Hsl37dqxB9
IxNOC/nTQu58l3KnLodMOweCmDnzHFrC5V96pYrKOaFj2Ijg6TO5maQHo0hfwiAC
FNIvYDb8AxNmDzOVAAZkd/Y0nbYeaO6/eNJzRiwJGKZMnXC3UpzRmIBenDTVMCjE
O1ZjsXe0hwjS0/sRytZHN1jWztnMuYftu3BLUQJQL0cmkWvPGjXKBd9kHhuYjtZu
+SEyLni+6VXJJCyR7/2kmlkq9UimB+RLA+EemW7Ik0oDI48CAwEAAaOBqDCBpTAJ
BgNVHRMEAjAAMB0GA1UdDgQWBBRKwv3rLMXxY6XyF2JDa52CbJoTJDAfBgNVHSME
GDAWgBQEwhevOGTghr8fyQBul28bu06HHzAOBgNVHQ8BAf8EBAMCBeAwEwYDVR0l
BAwwCgYIKwYBBQUHAwIwMwYJYIZIAYb4QgENBCYWJE9wZW5TU0wgR2VuZXJhdGVk
IENsaWVudCBDZXJ0aWZpY2F0ZTANBgkqhkiG9w0BAQsFAAOCAgEAaZSQ6AfmEf2o
zt8OiLDpAhL/1bL3MSFq+2m20dcRUcJtx8jwleZVc2VswUXG9nI3VWsJ7acrzoeo
VJYMuDmkf9/oIw94e5M/blCuvwtyFoa4iyDgFJIXg+Nvq2Ibm+KMHTZLUBR43b+b
1ft6tz9zzqghnhpb9yBBCDd/zjbtg0N1yOSRojgOHlBRctMhMRoT9Uj840ZHkepc
0Hdsc5Xtfpto5TBFm8mwTSU/RlSlL8Mk2eeISLK0r6waGD/AA1xQ+Gemv3IMUxws
n9pCSbh9dkR6e6imcmcNtMfuHoLAO2cwkWQoPLdb6fckT9jlCqi3zeNp6XiCU/33
7GWlVJqRM5K+Gk/JNBBcTpdXDdfYSoGCvOue0qGdZcVuzFCz64Ja/fOmr53UsqhU
WpF1ATj1RlqmvxEk9gMp8zYvBVbnKuex9sIkTs6FrZXYGSVjurkJZsmfOwI01tXI
tN8yoIV0DEooMbCbzkncudE/+lhLLsqgnD72NuX59m0xjMxIeCDqeDOpg3tO92i0
kk6aeIHGJJFiSumv/zA+IkJ8BUnZSRVvRjBRYQWPGXxuZWp421aiR6YqEQzvJwx+
K87/DOudSUfpl/a1yMnXnJxuivRi7g5Tdb/KPrMqvB2nZPM6v6Jsd14oaHqq/bMd
N3m41hcC04cOJX1wm54xRULcpiujCXw=
-----END CERTIFICATE-----
